; Function Attrs: mustprogress nounwind uwtable
define dso_local noundef i32 @_ZNK4llvm8codeview26DebugStringTableSubsection14getIdForStringENS_9StringRefE(ptr noundef nonnull align 8 dereferenceable(68) %0, ptr %1, i64 %2) local_unnamed_addr #1 align 2 {
  %4 = getelementptr inbounds nuw i8, ptr %0, i64 40
  %5 = tail call noundef i32 @_ZN4llvm13StringMapImpl4hashENS_9StringRefE(ptr %1, i64 %2) #17
  %6 = tail call noundef i32 @_ZNK4llvm13StringMapImpl7FindKeyENS_9StringRefEj(ptr noundef nonnull align 8 dereferenceable(24) %4, ptr %1, i64 %2, i32 noundef %5) #17
  %7 = icmp eq i32 %6, -1
  %8 = load ptr, ptr %4, align 8
  %9 = getelementptr inbounds i8, ptr %0, i64 48
  %10 = load i32, ptr %9, align 8
  %11 = zext i32 %10 to i64
  %12 = sext i32 %6 to i64
  %.sroa.0.0.v.i.i = select i1 %7, i64 %11, i64 %12
  %.sroa.0.0.i.i = getelementptr inbounds ptr, ptr %8, i64 %.sroa.0.0.v.i.i
  %13 = load ptr, ptr %.sroa.0.0.i.i, align 8
  %14 = getelementptr inbounds nuw i8, ptr %13, i64 8
  %15 = load i32, ptr %14, align 8
  ret i32 %15
}